target datalayout = "e-m:e-p270:32:32-p271:32:32-p272:64:64-i64:64-i128:128-f80:128-n8:16:32:64-S128"
target triple = "x86_64-unknown-linux-gnu"

%class.opt_stream_buffer = type { ptr, i32, i32 }

; Function Attrs: mustprogress uwtable
define linkonce_odr hidden void @_ZN17opt_stream_buffer4nextEv(ptr noundef nonnull align 8 dereferenceable(16) %this) #5 comdat align 2 {
entry:
  %this.addr = alloca ptr, align 8
  store ptr %this, ptr %this.addr, align 8
  %this1 = load ptr, ptr %this.addr, align 8
  %m_stream = getelementptr inbounds %class.opt_stream_buffer, ptr %this1, i32 0, i32 0
  %0 = load ptr, ptr %m_stream, align 8
  %call = call noundef i32 @_ZNSi3getEv(ptr noundef nonnull align 8 dereferenceable(16) %0)
  %m_val = getelementptr inbounds %class.opt_stream_buffer, ptr %this1, i32 0, i32 1
  store i32 %call, ptr %m_val, align 8
  ret void
}

; Function Attrs: mustprogress nounwind uwtable
define linkonce_odr hidden noundef i32 @_ZNK17opt_stream_buffer2chEv(ptr noundef nonnull align 8 dereferenceable(16) %this) #4 comdat align 2 {
entry:
  %this.addr = alloca ptr, align 8
  store ptr %this, ptr %this.addr, align 8
  %this1 = load ptr, ptr %this.addr, align 8
  %m_val = getelementptr inbounds %class.opt_stream_buffer, ptr %this1, i32 0, i32 1
  %0 = load i32, ptr %m_val, align 8
  ret i32 %0
}

; Function Attrs: mustprogress uwtable
define linkonce_odr hidden void @_ZN17opt_stream_buffer10skip_spaceEv(ptr noundef nonnull align 8 dereferenceable(16) %this) #5 comdat align 2 {
entry:
  %this.addr = alloca ptr, align 8
  store ptr %this, ptr %this.addr, align 8
  %this1 = load ptr, ptr %this.addr, align 8
  br label %while.cond

while.cond:                                       ; preds = %while.body, %entry
  %call = call noundef i32 @_ZNK17opt_stream_buffer2chEv(ptr noundef nonnull align 8 dereferenceable(16) %this1)
  %cmp = icmp ne i32 %call, 10
  br i1 %cmp, label %land.rhs, label %land.end

land.rhs:                                         ; preds = %while.cond
  %call2 = call noundef i32 @_ZNK17opt_stream_buffer2chEv(ptr noundef nonnull align 8 dereferenceable(16) %this1)
  %cmp3 = icmp sge i32 %call2, 9
  br i1 %cmp3, label %land.lhs.true, label %lor.rhs

land.lhs.true:                                    ; preds = %land.rhs
  %call4 = call noundef i32 @_ZNK17opt_stream_buffer2chEv(ptr noundef nonnull align 8 dereferenceable(16) %this1)
  %cmp5 = icmp sle i32 %call4, 13
  br i1 %cmp5, label %lor.end, label %lor.rhs

lor.rhs:                                          ; preds = %land.lhs.true, %land.rhs
  %call6 = call noundef i32 @_ZNK17opt_stream_buffer2chEv(ptr noundef nonnull align 8 dereferenceable(16) %this1)
  %cmp7 = icmp eq i32 %call6, 32
  br label %lor.end

lor.end:                                          ; preds = %lor.rhs, %land.lhs.true
  %0 = phi i1 [ true, %land.lhs.true ], [ %cmp7, %lor.rhs ]
  br label %land.end

land.end:                                         ; preds = %lor.end, %while.cond
  %1 = phi i1 [ false, %while.cond ], [ %0, %lor.end ]
  br i1 %1, label %while.body, label %while.end

while.body:                                       ; preds = %land.end
  call void @_ZN17opt_stream_buffer4nextEv(ptr noundef nonnull align 8 dereferenceable(16) %this1)
  br label %while.cond, !llvm.loop !8

while.end:                                        ; preds = %land.end
  ret void
}

; Function Attrs: mustprogress uwtable
define hidden noundef i32 @_ZN17opt_stream_buffer14parse_unsignedEv(ptr noundef nonnull align 8 dereferenceable(16) %this) #5 align 2 {
entry:
  %retval = alloca i32, align 4
  %this.addr = alloca ptr, align 8
  %val = alloca i32, align 4
  store ptr %this, ptr %this.addr, align 8
  %this1 = load ptr, ptr %this.addr, align 8
  call void @_ZN17opt_stream_buffer10skip_spaceEv(ptr noundef nonnull align 8 dereferenceable(16) %this1)
  %call = call noundef i32 @_ZNK17opt_stream_buffer2chEv(ptr noundef nonnull align 8 dereferenceable(16) %this1)
  %cmp = icmp eq i32 %call, 10
  br i1 %cmp, label %if.then, label %if.end

if.then:                                          ; preds = %entry
  store i32 -1, ptr %retval, align 4
  br label %return

if.end:                                           ; preds = %entry
  store i32 0, ptr %val, align 4
  br label %while.cond

while.cond:                                       ; preds = %while.body, %if.end
  %call2 = call noundef i32 @_ZNK17opt_stream_buffer2chEv(ptr noundef nonnull align 8 dereferenceable(16) %this1)
  %cmp3 = icmp sge i32 %call2, 48
  br i1 %cmp3, label %land.rhs, label %land.end

land.rhs:                                         ; preds = %while.cond
  %call4 = call noundef i32 @_ZNK17opt_stream_buffer2chEv(ptr noundef nonnull align 8 dereferenceable(16) %this1)
  %cmp5 = icmp sle i32 %call4, 57
  br label %land.end

land.end:                                         ; preds = %land.rhs, %while.cond
  %0 = phi i1 [ false, %while.cond ], [ %cmp5, %land.rhs ]
  br i1 %0, label %while.body, label %while.end

while.body:                                       ; preds = %land.end
  %1 = load i32, ptr %val, align 4
  %mul = mul i32 %1, 10
  %call6 = call noundef i32 @_ZNK17opt_stream_buffer2chEv(ptr noundef nonnull align 8 dereferenceable(16) %this1)
  %sub = sub nsw i32 %call6, 48
  %add = add i32 %mul, %sub
  store i32 %add, ptr %val, align 4
  call void @_ZN17opt_stream_buffer4nextEv(ptr noundef nonnull align 8 dereferenceable(16) %this1)
  br label %while.cond, !llvm.loop !7

while.end:                                        ; preds = %land.end
  %2 = load i32, ptr %val, align 4
  store i32 %2, ptr %retval, align 4
  br label %return

return:                                           ; preds = %while.end, %if.then
  %3 = load i32, ptr %retval, align 4
  ret i32 %3
}