; Function Attrs: mustprogress uwtable
define hidden noundef i32 @_ZN17opt_stream_buffer14parse_unsignedEv(ptr nocapture noundef nonnull align 8 dereferenceable(16) %this) local_unnamed_addr #3 align 2 {
entry:
  %m_val.i.i = getelementptr inbounds i8, ptr %this, i64 8
  %0 = load i32, ptr %m_val.i.i, align 8
  %cmp.not7.i = icmp ne i32 %0, 10
  %cmp38.i = icmp sgt i32 %0, 8
  %or.cond9.i = and i1 %cmp.not7.i, %cmp38.i
  br i1 %or.cond9.i, label %land.lhs.true.i, label %_ZN17opt_stream_buffer10skip_spaceEv.exit

land.lhs.true.i:                                  ; preds = %entry, %while.body.i
  %.pr = phi i32 [ %call.i.i, %while.body.i ], [ %0, %entry ]
  %cmp5.i = icmp ult i32 %.pr, 14
  %cmp7.i = icmp eq i32 %.pr, 32
  %or.cond6.i = or i1 %cmp5.i, %cmp7.i
  br i1 %or.cond6.i, label %while.body.i, label %while.condthread-pre-split

while.body.i:                                     ; preds = %land.lhs.true.i
  %1 = load ptr, ptr %this, align 8
  %call.i.i = tail call noundef i32 @_ZNSi3getEv(ptr noundef nonnull align 8 dereferenceable(16) %1)
  store i32 %call.i.i, ptr %m_val.i.i, align 8
  %cmp.not.i = icmp ne i32 %call.i.i, 10
  %cmp3.i = icmp sgt i32 %call.i.i, 8
  %or.cond.i = and i1 %cmp.not.i, %cmp3.i
  br i1 %or.cond.i, label %land.lhs.true.i, label %_ZN17opt_stream_buffer10skip_spaceEv.exit, !llvm.loop !7

_ZN17opt_stream_buffer10skip_spaceEv.exit:        ; preds = %while.body.i, %entry
  %.pr6 = phi i32 [ %0, %entry ], [ %call.i.i, %while.body.i ]
  %cmp = icmp eq i32 %.pr6, 10
  br i1 %cmp, label %return, label %while.condthread-pre-split

while.condthread-pre-split:                       ; preds = %land.lhs.true.i, %_ZN17opt_stream_buffer10skip_spaceEv.exit
  %.pr611 = phi i32 [ %.pr6, %_ZN17opt_stream_buffer10skip_spaceEv.exit ], [ %.pr, %land.lhs.true.i ]
  %2 = add i32 %.pr611, -48
  %or.cond7 = icmp ult i32 %2, 10
  br i1 %or.cond7, label %while.body, label %return

while.body:                                       ; preds = %while.condthread-pre-split, %while.body
  %val.08 = phi i32 [ %add, %while.body ], [ 0, %while.condthread-pre-split ]
  %3 = phi i32 [ %call.i, %while.body ], [ %.pr611, %while.condthread-pre-split ]
  %mul = mul i32 %val.08, 10
  %sub = add nsw i32 %3, -48
  %add = add i32 %sub, %mul
  %4 = load ptr, ptr %this, align 8
  %call.i = tail call noundef i32 @_ZNSi3getEv(ptr noundef nonnull align 8 dereferenceable(16) %4)
  store i32 %call.i, ptr %m_val.i.i, align 8
  %5 = add i32 %call.i, -48
  %or.cond = icmp ult i32 %5, 10
  br i1 %or.cond, label %while.body, label %return, !llvm.loop !8

return:                                           ; preds = %while.body, %while.condthread-pre-split, %_ZN17opt_stream_buffer10skip_spaceEv.exit
  %retval.0 = phi i32 [ -1, %_ZN17opt_stream_buffer10skip_spaceEv.exit ], [ 0, %while.condthread-pre-split ], [ %add, %while.body ]
  ret i32 %retval.0
}